target datalayout = "e-m:e-p270:32:32-p271:32:32-p272:64:64-i64:64-i128:128-f80:128-n8:16:32:64-S128"
target triple = "x86_64-pc-linux-gnu"

%struct.RelationData = type { %struct.RelFileLocator, ptr, i32, i32, i8, i8, i8, i8, i8, i32, i32, i32, i32, ptr, ptr, i32, %struct.LockInfoData, ptr, ptr, ptr, ptr, ptr, i8, ptr, ptr, ptr, ptr, ptr, ptr, i32, ptr, i8, ptr, ptr, i32, i8, i32, ptr, i8, ptr, ptr, ptr, ptr, ptr, ptr, ptr, i32, ptr, ptr, ptr, ptr, ptr, ptr, ptr, ptr, ptr, ptr, ptr, ptr, ptr, ptr, ptr, ptr, ptr, ptr, ptr, i32, i8, ptr }
%struct.RelFileLocator = type { i32, i32, i32 }
%struct.LockInfoData = type { %struct.LockRelId }
%struct.LockRelId = type { i32, i32 }
%struct.FormData_pg_class = type { i32, %struct.nameData, i32, i32, i32, i32, i32, i32, i32, i32, float, i32, i32, i8, i8, i8, i8, i16, i16, i8, i8, i8, i8, i8, i8, i8, i8, i32, i32, i32 }
%struct.nameData = type { [64 x i8] }
%struct.IndexAmRoutine = type { i32, i16, i16, i16, i8, i8, i8, i8, i8, i8, i8, i8, i8, i8, i8, i8, i8, i8, i8, i8, i8, i32, ptr, ptr, ptr, ptr, ptr, ptr, ptr, ptr, ptr, ptr, ptr, ptr, ptr, ptr, ptr, ptr, ptr, ptr, ptr, ptr, ptr, ptr, ptr, ptr, ptr, ptr }
%struct.IndexScanDescData = type { ptr, ptr, ptr, i32, i32, ptr, ptr, i8, i8, i8, i8, i8, ptr, ptr, ptr, ptr, ptr, %struct.ItemPointerData, i8, ptr, i8, ptr, ptr, i8, ptr }
%struct.ItemPointerData = type { %struct.BlockIdData, i16 }
%struct.BlockIdData = type { i16, i16 }
%struct.TableAmRoutine = type { i32, ptr, ptr, ptr, ptr, ptr, ptr, ptr, ptr, ptr, ptr, ptr, ptr, ptr, ptr, ptr, ptr, ptr, ptr, ptr, ptr, ptr, ptr, ptr, ptr, ptr, ptr, ptr, ptr, ptr, ptr, ptr, ptr, ptr, ptr, ptr, ptr, ptr, ptr, ptr, ptr, ptr, ptr, ptr, ptr, ptr }
%struct.IndexFetchTableData = type { ptr }
%struct.PgStat_TableStatus = type { i32, i8, ptr, %struct.PgStat_TableCounts, ptr }
%struct.PgStat_TableCounts = type { i64, i64, i64, i64, i64, i64, i64, i64, i8, i64, i64, i64, i64, i64 }

@.str.1 = private unnamed_addr constant [10 x i8] c"indexam.c\00", align 1
@.str.2 = private unnamed_addr constant [44 x i8] c"function \22%s\22 is not defined for index \22%s\22\00", align 1
@.str.8 = private unnamed_addr constant [11 x i8] c"amgettuple\00", align 1
@__func__.index_getnext_tid = private unnamed_addr constant [18 x i8] c"index_getnext_tid\00", align 1

; Function Attrs: inlinehint nounwind uwtable
define internal void @table_index_fetch_reset(ptr noundef %0) #3 {
  %2 = alloca ptr, align 8
  store ptr %0, ptr %2, align 8
  %3 = load ptr, ptr %2, align 8
  %4 = getelementptr inbounds nuw %struct.IndexFetchTableData, ptr %3, i32 0, i32 0
  %5 = load ptr, ptr %4, align 8
  %6 = getelementptr inbounds nuw %struct.RelationData, ptr %5, i32 0, i32 47
  %7 = load ptr, ptr %6, align 8
  %8 = getelementptr inbounds nuw %struct.TableAmRoutine, ptr %7, i32 0, i32 12
  %9 = load ptr, ptr %8, align 8
  %10 = load ptr, ptr %2, align 8
  call void %9(ptr noundef %10)
  ret void
}

; Function Attrs: nounwind uwtable
define dso_local ptr @index_getnext_tid(ptr noundef %0, i32 noundef %1) #0 {
  %3 = alloca ptr, align 8
  %4 = alloca ptr, align 8
  %5 = alloca i32, align 4
  %6 = alloca i8, align 1
  %7 = alloca i32, align 4
  store ptr %0, ptr %4, align 8
  store i32 %1, ptr %5, align 4
  call void @llvm.lifetime.start.p0(i64 1, ptr %6) #7
  br label %8

8:                                                ; preds = %2
  %9 = load ptr, ptr %4, align 8
  %10 = getelementptr inbounds nuw %struct.IndexScanDescData, ptr %9, i32 0, i32 1
  %11 = load ptr, ptr %10, align 8
  %12 = getelementptr inbounds nuw %struct.RelationData, ptr %11, i32 0, i32 51
  %13 = load ptr, ptr %12, align 8
  %14 = getelementptr inbounds nuw %struct.IndexAmRoutine, ptr %13, i32 0, i32 38
  %15 = load ptr, ptr %14, align 8
  %16 = icmp eq ptr %15, null
  br i1 %16, label %17, label %36

17:                                               ; preds = %8
  br label %18

18:                                               ; preds = %17
  br i1 true, label %19, label %21

19:                                               ; preds = %18
  %20 = call zeroext i1 @errstart_cold(i32 noundef 21, ptr noundef null) #8
  br i1 %20, label %23, label %33

21:                                               ; preds = %18
  %22 = call zeroext i1 @errstart(i32 noundef 21, ptr noundef null)
  br i1 %22, label %23, label %33

23:                                               ; preds = %21, %19
  %24 = load ptr, ptr %4, align 8
  %25 = getelementptr inbounds nuw %struct.IndexScanDescData, ptr %24, i32 0, i32 1
  %26 = load ptr, ptr %25, align 8
  %27 = getelementptr inbounds nuw %struct.RelationData, ptr %26, i32 0, i32 13
  %28 = load ptr, ptr %27, align 8
  %29 = getelementptr inbounds nuw %struct.FormData_pg_class, ptr %28, i32 0, i32 1
  %30 = getelementptr inbounds nuw %struct.nameData, ptr %29, i32 0, i32 0
  %31 = getelementptr inbounds [64 x i8], ptr %30, i64 0, i64 0
  %32 = call i32 (ptr, ...) @errmsg_internal(ptr noundef @.str.2, ptr noundef @.str.8, ptr noundef %31)
  call void @errfinish(ptr noundef @.str.1, i32 noundef 581, ptr noundef @__func__.index_getnext_tid)
  br label %33

33:                                               ; preds = %23, %21, %19
  unreachable

34:                                               ; No predecessors!
  br label %35

35:                                               ; preds = %34
  br label %36

36:                                               ; preds = %35, %8
  br label %37

37:                                               ; preds = %36
  br label %38

38:                                               ; preds = %37
  %39 = load ptr, ptr %4, align 8
  %40 = getelementptr inbounds nuw %struct.IndexScanDescData, ptr %39, i32 0, i32 1
  %41 = load ptr, ptr %40, align 8
  %42 = getelementptr inbounds nuw %struct.RelationData, ptr %41, i32 0, i32 51
  %43 = load ptr, ptr %42, align 8
  %44 = getelementptr inbounds nuw %struct.IndexAmRoutine, ptr %43, i32 0, i32 38
  %45 = load ptr, ptr %44, align 8
  %46 = load ptr, ptr %4, align 8
  %47 = load i32, ptr %5, align 4
  %48 = call zeroext i1 %45(ptr noundef %46, i32 noundef %47)
  %49 = zext i1 %48 to i8
  store i8 %49, ptr %6, align 1
  %50 = load ptr, ptr %4, align 8
  %51 = getelementptr inbounds nuw %struct.IndexScanDescData, ptr %50, i32 0, i32 9
  store i8 0, ptr %51, align 2
  %52 = load ptr, ptr %4, align 8
  %53 = getelementptr inbounds nuw %struct.IndexScanDescData, ptr %52, i32 0, i32 18
  store i8 0, ptr %53, align 2
  %54 = load i8, ptr %6, align 1, !range !4, !noundef !5
  %55 = trunc i8 %54 to i1
  br i1 %55, label %66, label %56

56:                                               ; preds = %38
  %57 = load ptr, ptr %4, align 8
  %58 = getelementptr inbounds nuw %struct.IndexScanDescData, ptr %57, i32 0, i32 19
  %59 = load ptr, ptr %58, align 8
  %60 = icmp ne ptr %59, null
  br i1 %60, label %61, label %65

61:                                               ; preds = %56
  %62 = load ptr, ptr %4, align 8
  %63 = getelementptr inbounds nuw %struct.IndexScanDescData, ptr %62, i32 0, i32 19
  %64 = load ptr, ptr %63, align 8
  call void @table_index_fetch_reset(ptr noundef %64)
  br label %65

65:                                               ; preds = %61, %56
  store ptr null, ptr %3, align 8
  store i32 1, ptr %7, align 4
  br label %108

66:                                               ; preds = %38
  br label %67

67:                                               ; preds = %66
  %68 = load ptr, ptr %4, align 8
  %69 = getelementptr inbounds nuw %struct.IndexScanDescData, ptr %68, i32 0, i32 1
  %70 = load ptr, ptr %69, align 8
  %71 = getelementptr inbounds nuw %struct.RelationData, ptr %70, i32 0, i32 68
  %72 = load ptr, ptr %71, align 8
  %73 = icmp ne ptr %72, null
  %74 = zext i1 %73 to i32
  %75 = icmp ne i32 %74, 0
  %76 = zext i1 %75 to i32
  %77 = sext i32 %76 to i64
  %78 = call i64 @llvm.expect.i64(i64 %77, i64 1)
  %79 = icmp ne i64 %78, 0
  br i1 %79, label %80, label %81

80:                                               ; preds = %67
  br i1 true, label %93, label %103

81:                                               ; preds = %67
  %82 = load ptr, ptr %4, align 8
  %83 = getelementptr inbounds nuw %struct.IndexScanDescData, ptr %82, i32 0, i32 1
  %84 = load ptr, ptr %83, align 8
  %85 = getelementptr inbounds nuw %struct.RelationData, ptr %84, i32 0, i32 67
  %86 = load i8, ptr %85, align 4, !range !4, !noundef !5
  %87 = trunc i8 %86 to i1
  br i1 %87, label %88, label %92

88:                                               ; preds = %81
  %89 = load ptr, ptr %4, align 8
  %90 = getelementptr inbounds nuw %struct.IndexScanDescData, ptr %89, i32 0, i32 1
  %91 = load ptr, ptr %90, align 8
  call void @pgstat_assoc_relation(ptr noundef %91)
  br i1 true, label %93, label %103

92:                                               ; preds = %81
  br i1 false, label %93, label %103

93:                                               ; preds = %92, %88, %80
  %94 = load ptr, ptr %4, align 8
  %95 = getelementptr inbounds nuw %struct.IndexScanDescData, ptr %94, i32 0, i32 1
  %96 = load ptr, ptr %95, align 8
  %97 = getelementptr inbounds nuw %struct.RelationData, ptr %96, i32 0, i32 68
  %98 = load ptr, ptr %97, align 8
  %99 = getelementptr inbounds nuw %struct.PgStat_TableStatus, ptr %98, i32 0, i32 3
  %100 = getelementptr inbounds nuw %struct.PgStat_TableCounts, ptr %99, i32 0, i32 1
  %101 = load i64, ptr %100, align 8
  %102 = add i64 %101, 1
  store i64 %102, ptr %100, align 8
  br label %103

103:                                              ; preds = %93, %92, %88, %80
  br label %104

104:                                              ; preds = %103
  br label %105

105:                                              ; preds = %104
  %106 = load ptr, ptr %4, align 8
  %107 = getelementptr inbounds nuw %struct.IndexScanDescData, ptr %106, i32 0, i32 17
  store ptr %107, ptr %3, align 8
  store i32 1, ptr %7, align 4
  br label %108

108:                                              ; preds = %105, %65
  call void @llvm.lifetime.end.p0(i64 1, ptr %6) #7
  %109 = load ptr, ptr %3, align 8
  ret ptr %109
}