; Function Attrs: nounwind uwtable
define dso_local ptr @index_getnext_tid(ptr noundef %0, i32 noundef %1) local_unnamed_addr #0 {
  %3 = getelementptr inbounds nuw i8, ptr %0, i64 8
  %4 = load ptr, ptr %3, align 8
  %5 = getelementptr inbounds nuw i8, ptr %4, i64 352
  %6 = load ptr, ptr %5, align 8
  %7 = getelementptr inbounds nuw i8, ptr %6, i64 160
  %8 = load ptr, ptr %7, align 8
  %9 = icmp eq ptr %8, null
  br i1 %9, label %10, label %17

10:                                               ; preds = %2
  %11 = tail call zeroext i1 @errstart_cold(i32 noundef 21, ptr noundef null) #8
  tail call void @llvm.assume(i1 %11)
  %12 = load ptr, ptr %3, align 8
  %13 = getelementptr inbounds nuw i8, ptr %12, i64 56
  %14 = load ptr, ptr %13, align 8
  %15 = getelementptr inbounds nuw i8, ptr %14, i64 4
  %16 = tail call i32 (ptr, ...) @errmsg_internal(ptr noundef nonnull @.str.2, ptr noundef nonnull @.str.8, ptr noundef nonnull %15) #7
  tail call void @errfinish(ptr noundef nonnull @.str.1, i32 noundef 581, ptr noundef nonnull @__func__.index_getnext_tid) #7
  unreachable

17:                                               ; preds = %2
  %18 = tail call zeroext i1 %8(ptr noundef nonnull %0, i32 noundef %1) #7
  %19 = getelementptr inbounds nuw i8, ptr %0, i64 50
  store i8 0, ptr %19, align 2
  %20 = getelementptr inbounds nuw i8, ptr %0, i64 102
  store i8 0, ptr %20, align 2
  br i1 %18, label %30, label %21

21:                                               ; preds = %17
  %22 = getelementptr inbounds nuw i8, ptr %0, i64 104
  %23 = load ptr, ptr %22, align 8
  %.not = icmp eq ptr %23, null
  br i1 %.not, label %46, label %24

24:                                               ; preds = %21
  %25 = load ptr, ptr %23, align 8
  %26 = getelementptr inbounds nuw i8, ptr %25, i64 320
  %27 = load ptr, ptr %26, align 8
  %28 = getelementptr inbounds nuw i8, ptr %27, i64 96
  %29 = load ptr, ptr %28, align 8
  tail call void %29(ptr noundef nonnull %23) #7
  br label %46

30:                                               ; preds = %17
  %31 = load ptr, ptr %3, align 8
  %32 = getelementptr inbounds nuw i8, ptr %31, i64 480
  %33 = load ptr, ptr %32, align 8
  %.not17 = icmp eq ptr %33, null
  br i1 %.not17, label %34, label %39, !prof !4

34:                                               ; preds = %30
  %35 = getelementptr inbounds nuw i8, ptr %31, i64 476
  %36 = load i8, ptr %35, align 4, !range !5, !noundef !6
  %37 = trunc nuw i8 %36 to i1
  br i1 %37, label %38, label %44

38:                                               ; preds = %34
  tail call void @pgstat_assoc_relation(ptr noundef nonnull %31) #7
  %.pre = load ptr, ptr %3, align 8
  %.phi.trans.insert = getelementptr inbounds nuw i8, ptr %.pre, i64 480
  %.pre18 = load ptr, ptr %.phi.trans.insert, align 8
  br label %39

39:                                               ; preds = %30, %38
  %40 = phi ptr [ %33, %30 ], [ %.pre18, %38 ]
  %41 = getelementptr inbounds nuw i8, ptr %40, i64 24
  %42 = load i64, ptr %41, align 8
  %43 = add i64 %42, 1
  store i64 %43, ptr %41, align 8
  br label %44

44:                                               ; preds = %34, %39
  %45 = getelementptr inbounds nuw i8, ptr %0, i64 96
  br label %46

46:                                               ; preds = %21, %24, %44
  %.0 = phi ptr [ %45, %44 ], [ null, %24 ], [ null, %21 ]
  ret ptr %.0
}